; Function Attrs: mustprogress nofree norecurse nosync nounwind willreturn memory(argmem: readwrite) uwtable
define noundef nonnull align 8 dereferenceable(32) ptr @_ZN32pxrInternal_v0_24__pxrReserved__10GfMatrix2d11SetDiagonalERKNS_7GfVec2dE(ptr noundef nonnull returned writeonly align 8 dereferenceable(32) initializes((0, 32)) %0, ptr noundef nonnull readonly align 8 captures(none) dereferenceable(16) %1) local_unnamed_addr #2 align 2 {
  %3 = load double, ptr %1, align 8
  store double %3, ptr %0, align 8
  %4 = getelementptr inbounds nuw i8, ptr %0, i64 8
  %5 = getelementptr inbounds nuw i8, ptr %1, i64 8
  tail call void @llvm.memset.p0.i64(ptr noundef nonnull align 8 dereferenceable(16) %4, i8 0, i64 16, i1 false)
  %6 = load double, ptr %5, align 8
  %7 = getelementptr inbounds nuw i8, ptr %0, i64 24
  store double %6, ptr %7, align 8
  ret ptr %0
}